ccopy_reg
_reconstructor
p0
(cgoogle.oauth2.credentials
Credentials
p1
c__builtin__
object
p2
Ntp3
Rp4
(dp5
S'_token_uri'
p6
Vhttps://oauth2.googleapis.com/token
p7
sS'_scopes'
p8
(lp9
S'https://www.googleapis.com/auth/spreadsheets.readonly'
p10
asS'_id_token'
p11
NsS'token'
p12
Vya29.GlwmB4x8RPpygx-nAjnUVTbBLazdcfdlV9id9179St_KCJvcBEqIC6fKoxx-V3PSY0tll57uYpmpfiqlam5ooI9kaKkPRyftzY5EstBeoTPmjnDqJlbj-SbqEJ-QJg
p13
sS'_refresh_token'
p14
V1/4PYY3syizOiyOdnEL06ztzQPh6VCYcYRaV7cbT_7VXU
p15
sS'_client_secret'
p16
VPHWQx7k6ldF73rDkqJE2Cedl
p17
sS'_client_id'
p18
V224241213692-7gafn34d4heprhps1rod3clt1b8j07j6.apps.googleusercontent.com
p19
sS'expiry'
p20
cdatetime
datetime
p21
(S'\x07\xe3\x06\x0c\x080%\x07\x10\x98'
p22
tp23
Rp24
sb.